(dp0
V010000
p1
I0
sV100000
p2
I1
sV100001
p3
I2
sV000111
p4
I3
sV010010
p5
I4
sV100010
p6
I5
sV100011
p7
I6
sV010011
p8
I7
sV001000
p9
I8
sV001010
p10
I9
sV010001
p11
I10
sV001011
p12
I11
sV001001
p13
I12
s.