(dp0
S'A'
p1
I0
sS'C'
p2
I1
sS'E'
p3
I3
sS'D'
p4
I2
sS'G'
p5
I5
sS'F'
p6
I4
sS'I'
p7
I7
sS'H'
p8
I6
sS'K'
p9
I8
sS'M'
p10
I10
sS'L'
p11
I9
sS'N'
p12
I11
sS'Q'
p13
I13
sS'P'
p14
I12
sS'S'
p15
I15
sS'R'
p16
I14
sS'T'
p17
I16
sS'W'
p18
I18
sS'V'
p19
I17
sS'Y'
p20
I19
sS'X'
p21
I20
s.